target datalayout = "e-m:e-p270:32:32-p271:32:32-p272:64:64-i64:64-i128:128-f80:128-n8:16:32:64-S128"
target triple = "x86_64-pc-linux-gnu"

%struct.PartitionDirectoryData = type { ptr, ptr, i8 }
%struct.PartitionDirectoryEntry = type { i32, ptr, ptr }
%struct.HASH_SEQ_STATUS = type { ptr, i32, ptr, i8, i32 }

; Function Attrs: nounwind uwtable
define dso_local void @DestroyPartitionDirectory(ptr noundef %0) #0 {
  %2 = alloca ptr, align 8
  %3 = alloca %struct.HASH_SEQ_STATUS, align 8
  %4 = alloca ptr, align 8
  store ptr %0, ptr %2, align 8
  call void @llvm.lifetime.start.p0(i64 32, ptr %3) #7
  call void @llvm.lifetime.start.p0(i64 8, ptr %4) #7
  %5 = load ptr, ptr %2, align 8
  %6 = getelementptr inbounds nuw %struct.PartitionDirectoryData, ptr %5, i32 0, i32 1
  %7 = load ptr, ptr %6, align 8
  call void @hash_seq_init(ptr noundef %3, ptr noundef %7)
  br label %8

8:                                                ; preds = %11, %1
  %9 = call ptr @hash_seq_search(ptr noundef %3)
  store ptr %9, ptr %4, align 8
  %10 = icmp ne ptr %9, null
  br i1 %10, label %11, label %15

11:                                               ; preds = %8
  %12 = load ptr, ptr %4, align 8
  %13 = getelementptr inbounds nuw %struct.PartitionDirectoryEntry, ptr %12, i32 0, i32 1
  %14 = load ptr, ptr %13, align 8
  call void @RelationDecrementReferenceCount(ptr noundef %14)
  br label %8, !llvm.loop !9

15:                                               ; preds = %8
  call void @llvm.lifetime.end.p0(i64 8, ptr %4) #7
  call void @llvm.lifetime.end.p0(i64 32, ptr %3) #7
  ret void
}