; Function Attrs: nounwind uwtable
define dso_local void @DestroyPartitionDirectory(ptr noundef readonly captures(none) %0) local_unnamed_addr #0 {
  %2 = alloca %struct.HASH_SEQ_STATUS, align 8
  call void @llvm.lifetime.start.p0(i64 32, ptr nonnull %2) #6
  %3 = getelementptr inbounds nuw i8, ptr %0, i64 8
  %4 = load ptr, ptr %3, align 8
  call void @hash_seq_init(ptr noundef nonnull %2, ptr noundef %4) #6
  %5 = call ptr @hash_seq_search(ptr noundef nonnull %2) #6
  %.not2 = icmp eq ptr %5, null
  br i1 %.not2, label %._crit_edge, label %.lr.ph

.lr.ph:                                           ; preds = %1, %.lr.ph
  %6 = phi ptr [ %9, %.lr.ph ], [ %5, %1 ]
  %7 = getelementptr inbounds nuw i8, ptr %6, i64 8
  %8 = load ptr, ptr %7, align 8
  call void @RelationDecrementReferenceCount(ptr noundef %8) #6
  %9 = call ptr @hash_seq_search(ptr noundef nonnull %2) #6
  %.not = icmp eq ptr %9, null
  br i1 %.not, label %._crit_edge, label %.lr.ph, !llvm.loop !9

._crit_edge:                                      ; preds = %.lr.ph, %1
  call void @llvm.lifetime.end.p0(i64 32, ptr nonnull %2) #6
  ret void
}